target datalayout = "e-m:e-p270:32:32-p271:32:32-p272:64:64-i64:64-i128:128-f80:128-n8:16:32:64-S128"
target triple = "x86_64-pc-linux-gnu"

%struct.QemuMutex = type { %union.pthread_mutex_t, i8 }
%union.pthread_mutex_t = type { %struct.__pthread_mutex_s }
%struct.__pthread_mutex_s = type { i32, i32, i32, i32, i32, i16, i16, %struct.__pthread_internal_list }
%struct.__pthread_internal_list = type { ptr, ptr }
%struct.QemuLockable = type { ptr, ptr, ptr }
%struct.BlockJobInfoList = type { ptr, ptr }

@job_mutex = external global %struct.QemuMutex, align 8

; Function Attrs: inlinehint nounwind sspstrong uwtable
define internal void @qemu_lockable_unlock(ptr noundef %0) #5 {
  %2 = alloca ptr, align 8
  store ptr %0, ptr %2, align 8
  %3 = load ptr, ptr %2, align 8
  %4 = getelementptr inbounds nuw %struct.QemuLockable, ptr %3, i32 0, i32 2
  %5 = load ptr, ptr %4, align 8
  %6 = load ptr, ptr %2, align 8
  %7 = getelementptr inbounds nuw %struct.QemuLockable, ptr %6, i32 0, i32 0
  %8 = load ptr, ptr %7, align 8
  call void %5(ptr noundef %8)
  ret void
}

; Function Attrs: inlinehint nounwind sspstrong uwtable
define internal void @qemu_lockable_auto_unlock(ptr noundef %0) #5 {
  %2 = alloca ptr, align 8
  store ptr %0, ptr %2, align 8
  %3 = load ptr, ptr %2, align 8
  %4 = icmp ne ptr %3, null
  br i1 %4, label %5, label %7

5:                                                ; preds = %1
  %6 = load ptr, ptr %2, align 8
  call void @qemu_lockable_unlock(ptr noundef %6)
  br label %7

7:                                                ; preds = %5, %1
  ret void
}

; Function Attrs: inlinehint nounwind sspstrong uwtable
define internal void @glib_autoptr_clear_QemuLockable(ptr noundef %0) #5 {
  %2 = alloca ptr, align 8
  store ptr %0, ptr %2, align 8
  %3 = load ptr, ptr %2, align 8
  %4 = icmp ne ptr %3, null
  br i1 %4, label %5, label %7

5:                                                ; preds = %1
  %6 = load ptr, ptr %2, align 8
  call void @qemu_lockable_auto_unlock(ptr noundef %6)
  br label %7

7:                                                ; preds = %5, %1
  ret void
}

; Function Attrs: inlinehint nounwind sspstrong uwtable
define internal void @qemu_lockable_lock(ptr noundef %0) #5 {
  %2 = alloca ptr, align 8
  store ptr %0, ptr %2, align 8
  %3 = load ptr, ptr %2, align 8
  %4 = getelementptr inbounds nuw %struct.QemuLockable, ptr %3, i32 0, i32 1
  %5 = load ptr, ptr %4, align 8
  %6 = load ptr, ptr %2, align 8
  %7 = getelementptr inbounds nuw %struct.QemuLockable, ptr %6, i32 0, i32 0
  %8 = load ptr, ptr %7, align 8
  call void %5(ptr noundef %8)
  ret void
}

; Function Attrs: inlinehint nounwind sspstrong uwtable
define internal void @glib_autoptr_cleanup_QemuLockable(ptr noundef %0) #5 {
  %2 = alloca ptr, align 8
  store ptr %0, ptr %2, align 8
  %3 = load ptr, ptr %2, align 8
  %4 = load ptr, ptr %3, align 8
  call void @glib_autoptr_clear_QemuLockable(ptr noundef %4)
  ret void
}

; Function Attrs: inlinehint nounwind sspstrong uwtable
define internal ptr @qemu_lockable_auto_lock(ptr noundef %0) #5 {
  %2 = alloca ptr, align 8
  store ptr %0, ptr %2, align 8
  %3 = load ptr, ptr %2, align 8
  call void @qemu_lockable_lock(ptr noundef %3)
  %4 = load ptr, ptr %2, align 8
  ret ptr %4
}

; Function Attrs: alwaysinline nounwind sspstrong uwtable
define internal ptr @qemu_make_lockable(ptr noundef %0, ptr noundef %1) #6 {
  %3 = alloca ptr, align 8
  %4 = alloca ptr, align 8
  store ptr %0, ptr %3, align 8
  store ptr %1, ptr %4, align 8
  %5 = load ptr, ptr %3, align 8
  %6 = icmp ne ptr %5, null
  br i1 %6, label %7, label %9

7:                                                ; preds = %2
  %8 = load ptr, ptr %4, align 8
  br label %10

9:                                                ; preds = %2
  br label %10

10:                                               ; preds = %9, %7
  %11 = phi ptr [ %8, %7 ], [ null, %9 ]
  ret ptr %11
}

; Function Attrs: nounwind sspstrong uwtable
define dso_local ptr @qmp_query_block_jobs(ptr noundef %0) #0 {
  %2 = alloca ptr, align 8
  %3 = alloca ptr, align 8
  %4 = alloca ptr, align 8
  %5 = alloca ptr, align 8
  %6 = alloca ptr, align 8
  %7 = alloca ptr, align 8
  %8 = alloca %struct.QemuLockable, align 8
  %9 = alloca ptr, align 8
  %10 = alloca i32, align 4
  store ptr %0, ptr %3, align 8
  call void @llvm.lifetime.start.p0(i64 8, ptr %4) #16
  store ptr null, ptr %4, align 8
  call void @llvm.lifetime.start.p0(i64 8, ptr %5) #16
  store ptr %4, ptr %5, align 8
  call void @llvm.lifetime.start.p0(i64 8, ptr %6) #16
  store ptr null, ptr %6, align 8, !annotation !4
  call void @llvm.lifetime.start.p0(i64 8, ptr %7) #16
  %11 = getelementptr inbounds nuw %struct.QemuLockable, ptr %8, i32 0, i32 0
  store ptr @job_mutex, ptr %11, align 8
  %12 = getelementptr inbounds nuw %struct.QemuLockable, ptr %8, i32 0, i32 1
  store ptr @qemu_lockable_mutex_lock, ptr %12, align 8
  %13 = getelementptr inbounds nuw %struct.QemuLockable, ptr %8, i32 0, i32 2
  store ptr @qemu_lockable_mutex_unlock, ptr %13, align 8
  %14 = call ptr @qemu_make_lockable(ptr noundef @job_mutex, ptr noundef %8)
  %15 = call ptr @qemu_lockable_auto_lock(ptr noundef %14)
  store ptr %15, ptr %7, align 8
  %16 = call ptr @block_job_next_locked(ptr noundef null)
  store ptr %16, ptr %6, align 8
  br label %17

17:                                               ; preds = %48, %1
  %18 = load ptr, ptr %6, align 8
  %19 = icmp ne ptr %18, null
  br i1 %19, label %20, label %51

20:                                               ; preds = %17
  call void @llvm.lifetime.start.p0(i64 8, ptr %9) #16
  store ptr null, ptr %9, align 8, !annotation !4
  %21 = load ptr, ptr %6, align 8
  %22 = call zeroext i1 @block_job_is_internal(ptr noundef %21)
  br i1 %22, label %23, label %24

23:                                               ; preds = %20
  store i32 4, ptr %10, align 4
  br label %45

24:                                               ; preds = %20
  %25 = load ptr, ptr %6, align 8
  %26 = load ptr, ptr %3, align 8
  %27 = call ptr @block_job_query_locked(ptr noundef %25, ptr noundef %26)
  store ptr %27, ptr %9, align 8
  %28 = load ptr, ptr %9, align 8
  %29 = icmp ne ptr %28, null
  br i1 %29, label %32, label %30

30:                                               ; preds = %24
  %31 = load ptr, ptr %4, align 8
  call void @qapi_free_BlockJobInfoList(ptr noundef %31)
  store ptr null, ptr %2, align 8
  store i32 1, ptr %10, align 4
  br label %45

32:                                               ; preds = %24
  br label %33

33:                                               ; preds = %32
  %34 = call noalias ptr @g_malloc0(i64 noundef 16) #19
  %35 = load ptr, ptr %5, align 8
  store ptr %34, ptr %35, align 8
  %36 = load ptr, ptr %9, align 8
  %37 = load ptr, ptr %5, align 8
  %38 = load ptr, ptr %37, align 8
  %39 = getelementptr inbounds nuw %struct.BlockJobInfoList, ptr %38, i32 0, i32 1
  store ptr %36, ptr %39, align 8
  %40 = load ptr, ptr %5, align 8
  %41 = load ptr, ptr %40, align 8
  %42 = getelementptr inbounds nuw %struct.BlockJobInfoList, ptr %41, i32 0, i32 0
  store ptr %42, ptr %5, align 8
  br label %43

43:                                               ; preds = %33
  br label %44

44:                                               ; preds = %43
  store i32 0, ptr %10, align 4
  br label %45

45:                                               ; preds = %44, %30, %23
  call void @llvm.lifetime.end.p0(i64 8, ptr %9) #16
  %46 = load i32, ptr %10, align 4
  switch i32 %46, label %53 [
    i32 0, label %47
    i32 4, label %48
  ]

47:                                               ; preds = %45
  br label %48

48:                                               ; preds = %47, %45
  %49 = load ptr, ptr %6, align 8
  %50 = call ptr @block_job_next_locked(ptr noundef %49)
  store ptr %50, ptr %6, align 8
  br label %17, !llvm.loop !27

51:                                               ; preds = %17
  %52 = load ptr, ptr %4, align 8
  store ptr %52, ptr %2, align 8
  store i32 1, ptr %10, align 4
  br label %53

53:                                               ; preds = %51, %45
  call void @glib_autoptr_cleanup_QemuLockable(ptr noundef %7)
  call void @llvm.lifetime.end.p0(i64 8, ptr %7) #16
  call void @llvm.lifetime.end.p0(i64 8, ptr %6) #16
  call void @llvm.lifetime.end.p0(i64 8, ptr %5) #16
  call void @llvm.lifetime.end.p0(i64 8, ptr %4) #16
  %54 = load ptr, ptr %2, align 8
  ret ptr %54
}