; Function Attrs: nounwind sspstrong uwtable
define dso_local ptr @qmp_query_block_jobs(ptr noundef %0) local_unnamed_addr #0 {
  %2 = alloca ptr, align 8
  call void @llvm.lifetime.start.p0(i64 8, ptr nonnull %2)
  store ptr null, ptr %2, align 8
  %3 = load atomic i64, ptr @qemu_mutex_lock_func monotonic, align 8
  %4 = inttoptr i64 %3 to ptr
  tail call void %4(ptr noundef nonnull @job_mutex, ptr noundef nonnull @.str.183, i32 noundef 56) #14
  %5 = tail call ptr @block_job_next_locked(ptr noundef null) #14
  %.not21 = icmp eq ptr %5, null
  br i1 %.not21, label %glib_autoptr_cleanup_QemuLockable.exit, label %.lr.ph

.lr.ph:                                           ; preds = %1, %14
  %.01123 = phi ptr [ %15, %14 ], [ %5, %1 ]
  %.01222 = phi ptr [ %.1.ph, %14 ], [ %2, %1 ]
  %6 = tail call zeroext i1 @block_job_is_internal(ptr noundef nonnull %.01123) #14
  br i1 %6, label %14, label %7

7:                                                ; preds = %.lr.ph
  %8 = tail call ptr @block_job_query_locked(ptr noundef nonnull %.01123, ptr noundef %0) #14
  %.not17 = icmp eq ptr %8, null
  br i1 %.not17, label %13, label %9

9:                                                ; preds = %7
  %10 = tail call noalias dereferenceable_or_null(16) ptr @g_malloc0(i64 noundef 16) #18
  store ptr %10, ptr %.01222, align 8
  %11 = getelementptr inbounds nuw i8, ptr %10, i64 8
  store ptr %8, ptr %11, align 8
  %12 = load ptr, ptr %.01222, align 8
  br label %14

13:                                               ; preds = %7
  %.0..0..0..0..0..0. = load ptr, ptr %2, align 8
  tail call void @qapi_free_BlockJobInfoList(ptr noundef %.0..0..0..0..0..0.) #14
  br label %glib_autoptr_cleanup_QemuLockable.exit

14:                                               ; preds = %9, %.lr.ph
  %.1.ph = phi ptr [ %.01222, %.lr.ph ], [ %12, %9 ]
  %15 = tail call ptr @block_job_next_locked(ptr noundef nonnull %.01123) #14
  %.not = icmp eq ptr %15, null
  br i1 %.not, label %._crit_edge.loopexit, label %.lr.ph, !llvm.loop !25

._crit_edge.loopexit:                             ; preds = %14
  %.0..0..0..0..0..0.15.pre = load ptr, ptr %2, align 8
  br label %glib_autoptr_cleanup_QemuLockable.exit

glib_autoptr_cleanup_QemuLockable.exit:           ; preds = %1, %._crit_edge.loopexit, %13
  %.2 = phi ptr [ null, %13 ], [ %.0..0..0..0..0..0.15.pre, %._crit_edge.loopexit ], [ null, %1 ]
  tail call void @qemu_mutex_unlock_impl(ptr noundef nonnull @job_mutex, ptr noundef nonnull @.str.183, i32 noundef 56) #14
  call void @llvm.lifetime.end.p0(i64 8, ptr nonnull %2)
  ret ptr %.2
}